target datalayout = "e-m:e-p270:32:32-p271:32:32-p272:64:64-i64:64-i128:128-f80:128-n8:16:32:64-S128"
target triple = "x86_64-pc-linux-gnu"

%struct.CVodeMemRec = type { double, ptr, ptr, i32, i32, i32, double, double, ptr, i32, ptr, ptr, i32, ptr, i32, i32, double, double, ptr, i32, i32, i32, ptr, ptr, ptr, i32, i32, ptr, ptr, ptr, i32, double, i32, i32, double, ptr, ptr, i32, ptr, ptr, i32, i32, i32, double, ptr, ptr, [13 x ptr], ptr, ptr, ptr, ptr, ptr, [13 x ptr], ptr, ptr, ptr, ptr, [13 x ptr], ptr, ptr, ptr, ptr, ptr, i32, [13 x ptr], ptr, ptr, ptr, ptr, ptr, i32, double, i32, i32, i32, i32, i32, double, double, double, double, double, double, double, double, [14 x double], [6 x double], [13 x double], double, double, double, double, double, double, double, double, double, double, double, i32, ptr, i32, i64, i32, i32, i32, i32, i32, double, double, double, i64, i64, i64, i64, i64, i64, i64, i64, i64, ptr, i64, i64, ptr, i64, i64, i64, i64, i64, i64, i32, i64, i64, i64, i64, i64, i64, double, double, double, ptr, ptr, ptr, ptr, ptr, i32, i32, i64, double, double, double, i32, double, i32, i32, i32, i32, i32, i32, i32, i32, i32, i32, i32, i32, i32, i32, i32, i32, ptr, ptr, ptr, i32, [6 x [4 x double]], i32, i64, ptr, i32, ptr, ptr, double, double, double, ptr, ptr, ptr, double, double, i32, i32, i64, ptr, i32, i32, ptr, i32 }
%struct.CVadjMemRec = type { double, double, i32, i32, double, ptr, i32, ptr, i32, ptr, i32, ptr, i64, ptr, i64, i32, ptr, ptr, ptr, ptr, i32, i32, i32, i32, [13 x ptr], [13 x ptr], [13 x double], ptr, ptr, i64 }
%struct.HermiteDataMemRec = type { ptr, ptr, ptr, ptr }
%struct.DtpntMemRec = type { double, ptr }

; Function Attrs: nounwind uwtable
define internal i32 @CVAhermiteMalloc(ptr noundef %0) #0 {
  %2 = alloca i32, align 4
  %3 = alloca ptr, align 8
  %4 = alloca ptr, align 8
  %5 = alloca ptr, align 8
  %6 = alloca ptr, align 8
  %7 = alloca i64, align 8
  %8 = alloca i64, align 8
  %9 = alloca i32, align 4
  %10 = alloca i32, align 4
  store ptr %0, ptr %3, align 8, !tbaa !11
  call void @llvm.lifetime.start.p0(i64 8, ptr %4) #5
  call void @llvm.lifetime.start.p0(i64 8, ptr %5) #5
  call void @llvm.lifetime.start.p0(i64 8, ptr %6) #5
  call void @llvm.lifetime.start.p0(i64 8, ptr %7) #5
  call void @llvm.lifetime.start.p0(i64 8, ptr %8) #5
  store i64 0, ptr %8, align 8, !tbaa !7
  call void @llvm.lifetime.start.p0(i64 4, ptr %9) #5
  store i32 1, ptr %9, align 4, !tbaa !9
  %11 = load ptr, ptr %3, align 8, !tbaa !11
  %12 = getelementptr inbounds nuw %struct.CVodeMemRec, ptr %11, i32 0, i32 194
  %13 = load ptr, ptr %12, align 8, !tbaa !15
  store ptr %13, ptr %4, align 8, !tbaa !13
  %14 = load ptr, ptr %3, align 8, !tbaa !11
  %15 = getelementptr inbounds nuw %struct.CVodeMemRec, ptr %14, i32 0, i32 50
  %16 = load ptr, ptr %15, align 8, !tbaa !54
  %17 = call ptr @N_VClone(ptr noundef %16)
  %18 = load ptr, ptr %4, align 8, !tbaa !13
  %19 = getelementptr inbounds nuw %struct.CVadjMemRec, ptr %18, i32 0, i32 27
  store ptr %17, ptr %19, align 8, !tbaa !55
  %20 = load ptr, ptr %4, align 8, !tbaa !13
  %21 = getelementptr inbounds nuw %struct.CVadjMemRec, ptr %20, i32 0, i32 27
  %22 = load ptr, ptr %21, align 8, !tbaa !55
  %23 = icmp eq ptr %22, null
  br i1 %23, label %24, label %25

24:                                               ; preds = %1
  store i32 0, ptr %2, align 4
  store i32 1, ptr %10, align 4
  br label %235

25:                                               ; preds = %1
  %26 = load ptr, ptr %4, align 8, !tbaa !13
  %27 = getelementptr inbounds nuw %struct.CVadjMemRec, ptr %26, i32 0, i32 22
  %28 = load i32, ptr %27, align 8, !tbaa !44
  %29 = icmp ne i32 %28, 0
  br i1 %29, label %30, label %49

30:                                               ; preds = %25
  %31 = load ptr, ptr %3, align 8, !tbaa !11
  %32 = getelementptr inbounds nuw %struct.CVodeMemRec, ptr %31, i32 0, i32 20
  %33 = load i32, ptr %32, align 4, !tbaa !56
  %34 = load ptr, ptr %3, align 8, !tbaa !11
  %35 = getelementptr inbounds nuw %struct.CVodeMemRec, ptr %34, i32 0, i32 50
  %36 = load ptr, ptr %35, align 8, !tbaa !54
  %37 = call ptr @N_VCloneVectorArray(i32 noundef %33, ptr noundef %36)
  %38 = load ptr, ptr %4, align 8, !tbaa !13
  %39 = getelementptr inbounds nuw %struct.CVadjMemRec, ptr %38, i32 0, i32 28
  store ptr %37, ptr %39, align 8, !tbaa !57
  %40 = load ptr, ptr %4, align 8, !tbaa !13
  %41 = getelementptr inbounds nuw %struct.CVadjMemRec, ptr %40, i32 0, i32 28
  %42 = load ptr, ptr %41, align 8, !tbaa !57
  %43 = icmp eq ptr %42, null
  br i1 %43, label %44, label %48

44:                                               ; preds = %30
  %45 = load ptr, ptr %4, align 8, !tbaa !13
  %46 = getelementptr inbounds nuw %struct.CVadjMemRec, ptr %45, i32 0, i32 27
  %47 = load ptr, ptr %46, align 8, !tbaa !55
  call void @N_VDestroy(ptr noundef %47)
  store i32 0, ptr %2, align 4
  store i32 1, ptr %10, align 4
  br label %235

48:                                               ; preds = %30
  br label %49

49:                                               ; preds = %48, %25
  %50 = load ptr, ptr %4, align 8, !tbaa !13
  %51 = getelementptr inbounds nuw %struct.CVadjMemRec, ptr %50, i32 0, i32 13
  %52 = load ptr, ptr %51, align 8, !tbaa !33
  store ptr %52, ptr %5, align 8, !tbaa !58
  store i64 0, ptr %7, align 8, !tbaa !7
  br label %53

53:                                               ; preds = %161, %49
  %54 = load i64, ptr %7, align 8, !tbaa !7
  %55 = load ptr, ptr %4, align 8, !tbaa !13
  %56 = getelementptr inbounds nuw %struct.CVadjMemRec, ptr %55, i32 0, i32 12
  %57 = load i64, ptr %56, align 8, !tbaa !32
  %58 = icmp sle i64 %54, %57
  br i1 %58, label %59, label %164

59:                                               ; preds = %53
  store ptr null, ptr %6, align 8, !tbaa !59
  %60 = call noalias ptr @malloc(i64 noundef 32) #6
  store ptr %60, ptr %6, align 8, !tbaa !59
  %61 = load ptr, ptr %6, align 8, !tbaa !59
  %62 = icmp eq ptr %61, null
  br i1 %62, label %63, label %65

63:                                               ; preds = %59
  %64 = load i64, ptr %7, align 8, !tbaa !7
  store i64 %64, ptr %8, align 8, !tbaa !7
  store i32 0, ptr %9, align 4, !tbaa !9
  br label %164

65:                                               ; preds = %59
  %66 = load ptr, ptr %3, align 8, !tbaa !11
  %67 = getelementptr inbounds nuw %struct.CVodeMemRec, ptr %66, i32 0, i32 50
  %68 = load ptr, ptr %67, align 8, !tbaa !54
  %69 = call ptr @N_VClone(ptr noundef %68)
  %70 = load ptr, ptr %6, align 8, !tbaa !59
  %71 = getelementptr inbounds nuw %struct.HermiteDataMemRec, ptr %70, i32 0, i32 0
  store ptr %69, ptr %71, align 8, !tbaa !61
  %72 = load ptr, ptr %6, align 8, !tbaa !59
  %73 = getelementptr inbounds nuw %struct.HermiteDataMemRec, ptr %72, i32 0, i32 0
  %74 = load ptr, ptr %73, align 8, !tbaa !61
  %75 = icmp eq ptr %74, null
  br i1 %75, label %76, label %79

76:                                               ; preds = %65
  %77 = load ptr, ptr %6, align 8, !tbaa !59
  call void @free(ptr noundef %77) #5
  store ptr null, ptr %6, align 8, !tbaa !59
  %78 = load i64, ptr %7, align 8, !tbaa !7
  store i64 %78, ptr %8, align 8, !tbaa !7
  store i32 0, ptr %9, align 4, !tbaa !9
  br label %164

79:                                               ; preds = %65
  %80 = load ptr, ptr %3, align 8, !tbaa !11
  %81 = getelementptr inbounds nuw %struct.CVodeMemRec, ptr %80, i32 0, i32 50
  %82 = load ptr, ptr %81, align 8, !tbaa !54
  %83 = call ptr @N_VClone(ptr noundef %82)
  %84 = load ptr, ptr %6, align 8, !tbaa !59
  %85 = getelementptr inbounds nuw %struct.HermiteDataMemRec, ptr %84, i32 0, i32 1
  store ptr %83, ptr %85, align 8, !tbaa !63
  %86 = load ptr, ptr %6, align 8, !tbaa !59
  %87 = getelementptr inbounds nuw %struct.HermiteDataMemRec, ptr %86, i32 0, i32 1
  %88 = load ptr, ptr %87, align 8, !tbaa !63
  %89 = icmp eq ptr %88, null
  br i1 %89, label %90, label %96

90:                                               ; preds = %79
  %91 = load ptr, ptr %6, align 8, !tbaa !59
  %92 = getelementptr inbounds nuw %struct.HermiteDataMemRec, ptr %91, i32 0, i32 0
  %93 = load ptr, ptr %92, align 8, !tbaa !61
  call void @N_VDestroy(ptr noundef %93)
  %94 = load ptr, ptr %6, align 8, !tbaa !59
  call void @free(ptr noundef %94) #5
  store ptr null, ptr %6, align 8, !tbaa !59
  %95 = load i64, ptr %7, align 8, !tbaa !7
  store i64 %95, ptr %8, align 8, !tbaa !7
  store i32 0, ptr %9, align 4, !tbaa !9
  br label %164

96:                                               ; preds = %79
  %97 = load ptr, ptr %4, align 8, !tbaa !13
  %98 = getelementptr inbounds nuw %struct.CVadjMemRec, ptr %97, i32 0, i32 22
  %99 = load i32, ptr %98, align 8, !tbaa !44
  %100 = icmp ne i32 %99, 0
  br i1 %100, label %101, label %154

101:                                              ; preds = %96
  %102 = load ptr, ptr %3, align 8, !tbaa !11
  %103 = getelementptr inbounds nuw %struct.CVodeMemRec, ptr %102, i32 0, i32 20
  %104 = load i32, ptr %103, align 4, !tbaa !56
  %105 = load ptr, ptr %3, align 8, !tbaa !11
  %106 = getelementptr inbounds nuw %struct.CVodeMemRec, ptr %105, i32 0, i32 50
  %107 = load ptr, ptr %106, align 8, !tbaa !54
  %108 = call ptr @N_VCloneVectorArray(i32 noundef %104, ptr noundef %107)
  %109 = load ptr, ptr %6, align 8, !tbaa !59
  %110 = getelementptr inbounds nuw %struct.HermiteDataMemRec, ptr %109, i32 0, i32 2
  store ptr %108, ptr %110, align 8, !tbaa !64
  %111 = load ptr, ptr %6, align 8, !tbaa !59
  %112 = getelementptr inbounds nuw %struct.HermiteDataMemRec, ptr %111, i32 0, i32 2
  %113 = load ptr, ptr %112, align 8, !tbaa !64
  %114 = icmp eq ptr %113, null
  br i1 %114, label %115, label %124

115:                                              ; preds = %101
  %116 = load ptr, ptr %6, align 8, !tbaa !59
  %117 = getelementptr inbounds nuw %struct.HermiteDataMemRec, ptr %116, i32 0, i32 0
  %118 = load ptr, ptr %117, align 8, !tbaa !61
  call void @N_VDestroy(ptr noundef %118)
  %119 = load ptr, ptr %6, align 8, !tbaa !59
  %120 = getelementptr inbounds nuw %struct.HermiteDataMemRec, ptr %119, i32 0, i32 1
  %121 = load ptr, ptr %120, align 8, !tbaa !63
  call void @N_VDestroy(ptr noundef %121)
  %122 = load ptr, ptr %6, align 8, !tbaa !59
  call void @free(ptr noundef %122) #5
  store ptr null, ptr %6, align 8, !tbaa !59
  %123 = load i64, ptr %7, align 8, !tbaa !7
  store i64 %123, ptr %8, align 8, !tbaa !7
  store i32 0, ptr %9, align 4, !tbaa !9
  br label %164

124:                                              ; preds = %101
  %125 = load ptr, ptr %3, align 8, !tbaa !11
  %126 = getelementptr inbounds nuw %struct.CVodeMemRec, ptr %125, i32 0, i32 20
  %127 = load i32, ptr %126, align 4, !tbaa !56
  %128 = load ptr, ptr %3, align 8, !tbaa !11
  %129 = getelementptr inbounds nuw %struct.CVodeMemRec, ptr %128, i32 0, i32 50
  %130 = load ptr, ptr %129, align 8, !tbaa !54
  %131 = call ptr @N_VCloneVectorArray(i32 noundef %127, ptr noundef %130)
  %132 = load ptr, ptr %6, align 8, !tbaa !59
  %133 = getelementptr inbounds nuw %struct.HermiteDataMemRec, ptr %132, i32 0, i32 3
  store ptr %131, ptr %133, align 8, !tbaa !65
  %134 = load ptr, ptr %6, align 8, !tbaa !59
  %135 = getelementptr inbounds nuw %struct.HermiteDataMemRec, ptr %134, i32 0, i32 3
  %136 = load ptr, ptr %135, align 8, !tbaa !65
  %137 = icmp eq ptr %136, null
  br i1 %137, label %138, label %153

138:                                              ; preds = %124
  %139 = load ptr, ptr %6, align 8, !tbaa !59
  %140 = getelementptr inbounds nuw %struct.HermiteDataMemRec, ptr %139, i32 0, i32 0
  %141 = load ptr, ptr %140, align 8, !tbaa !61
  call void @N_VDestroy(ptr noundef %141)
  %142 = load ptr, ptr %6, align 8, !tbaa !59
  %143 = getelementptr inbounds nuw %struct.HermiteDataMemRec, ptr %142, i32 0, i32 1
  %144 = load ptr, ptr %143, align 8, !tbaa !63
  call void @N_VDestroy(ptr noundef %144)
  %145 = load ptr, ptr %6, align 8, !tbaa !59
  %146 = getelementptr inbounds nuw %struct.HermiteDataMemRec, ptr %145, i32 0, i32 2
  %147 = load ptr, ptr %146, align 8, !tbaa !64
  %148 = load ptr, ptr %3, align 8, !tbaa !11
  %149 = getelementptr inbounds nuw %struct.CVodeMemRec, ptr %148, i32 0, i32 20
  %150 = load i32, ptr %149, align 4, !tbaa !56
  call void @N_VDestroyVectorArray(ptr noundef %147, i32 noundef %150)
  %151 = load ptr, ptr %6, align 8, !tbaa !59
  call void @free(ptr noundef %151) #5
  store ptr null, ptr %6, align 8, !tbaa !59
  %152 = load i64, ptr %7, align 8, !tbaa !7
  store i64 %152, ptr %8, align 8, !tbaa !7
  store i32 0, ptr %9, align 4, !tbaa !9
  br label %164

153:                                              ; preds = %124
  br label %154

154:                                              ; preds = %153, %96
  %155 = load ptr, ptr %6, align 8, !tbaa !59
  %156 = load ptr, ptr %5, align 8, !tbaa !58
  %157 = load i64, ptr %7, align 8, !tbaa !7
  %158 = getelementptr inbounds ptr, ptr %156, i64 %157
  %159 = load ptr, ptr %158, align 8, !tbaa !34
  %160 = getelementptr inbounds nuw %struct.DtpntMemRec, ptr %159, i32 0, i32 1
  store ptr %155, ptr %160, align 8, !tbaa !66
  br label %161

161:                                              ; preds = %154
  %162 = load i64, ptr %7, align 8, !tbaa !7
  %163 = add nsw i64 %162, 1
  store i64 %163, ptr %7, align 8, !tbaa !7
  br label %53, !llvm.loop !68

164:                                              ; preds = %138, %115, %90, %76, %63, %53
  %165 = load i32, ptr %9, align 4, !tbaa !9
  %166 = icmp ne i32 %165, 0
  br i1 %166, label %233, label %167

167:                                              ; preds = %164
  %168 = load ptr, ptr %4, align 8, !tbaa !13
  %169 = getelementptr inbounds nuw %struct.CVadjMemRec, ptr %168, i32 0, i32 27
  %170 = load ptr, ptr %169, align 8, !tbaa !55
  call void @N_VDestroy(ptr noundef %170)
  %171 = load ptr, ptr %4, align 8, !tbaa !13
  %172 = getelementptr inbounds nuw %struct.CVadjMemRec, ptr %171, i32 0, i32 22
  %173 = load i32, ptr %172, align 8, !tbaa !44
  %174 = icmp ne i32 %173, 0
  br i1 %174, label %175, label %182

175:                                              ; preds = %167
  %176 = load ptr, ptr %4, align 8, !tbaa !13
  %177 = getelementptr inbounds nuw %struct.CVadjMemRec, ptr %176, i32 0, i32 28
  %178 = load ptr, ptr %177, align 8, !tbaa !57
  %179 = load ptr, ptr %3, align 8, !tbaa !11
  %180 = getelementptr inbounds nuw %struct.CVodeMemRec, ptr %179, i32 0, i32 20
  %181 = load i32, ptr %180, align 4, !tbaa !56
  call void @N_VDestroyVectorArray(ptr noundef %178, i32 noundef %181)
  br label %182

182:                                              ; preds = %175, %167
  store i64 0, ptr %7, align 8, !tbaa !7
  br label %183

183:                                              ; preds = %229, %182
  %184 = load i64, ptr %7, align 8, !tbaa !7
  %185 = load i64, ptr %8, align 8, !tbaa !7
  %186 = icmp slt i64 %184, %185
  br i1 %186, label %187, label %232

187:                                              ; preds = %183
  %188 = load ptr, ptr %5, align 8, !tbaa !58
  %189 = load i64, ptr %7, align 8, !tbaa !7
  %190 = getelementptr inbounds ptr, ptr %188, i64 %189
  %191 = load ptr, ptr %190, align 8, !tbaa !34
  %192 = getelementptr inbounds nuw %struct.DtpntMemRec, ptr %191, i32 0, i32 1
  %193 = load ptr, ptr %192, align 8, !tbaa !66
  store ptr %193, ptr %6, align 8, !tbaa !59
  %194 = load ptr, ptr %6, align 8, !tbaa !59
  %195 = getelementptr inbounds nuw %struct.HermiteDataMemRec, ptr %194, i32 0, i32 0
  %196 = load ptr, ptr %195, align 8, !tbaa !61
  call void @N_VDestroy(ptr noundef %196)
  %197 = load ptr, ptr %6, align 8, !tbaa !59
  %198 = getelementptr inbounds nuw %struct.HermiteDataMemRec, ptr %197, i32 0, i32 1
  %199 = load ptr, ptr %198, align 8, !tbaa !63
  call void @N_VDestroy(ptr noundef %199)
  %200 = load ptr, ptr %4, align 8, !tbaa !13
  %201 = getelementptr inbounds nuw %struct.CVadjMemRec, ptr %200, i32 0, i32 22
  %202 = load i32, ptr %201, align 8, !tbaa !44
  %203 = icmp ne i32 %202, 0
  br i1 %203, label %204, label %217

204:                                              ; preds = %187
  %205 = load ptr, ptr %6, align 8, !tbaa !59
  %206 = getelementptr inbounds nuw %struct.HermiteDataMemRec, ptr %205, i32 0, i32 2
  %207 = load ptr, ptr %206, align 8, !tbaa !64
  %208 = load ptr, ptr %3, align 8, !tbaa !11
  %209 = getelementptr inbounds nuw %struct.CVodeMemRec, ptr %208, i32 0, i32 20
  %210 = load i32, ptr %209, align 4, !tbaa !56
  call void @N_VDestroyVectorArray(ptr noundef %207, i32 noundef %210)
  %211 = load ptr, ptr %6, align 8, !tbaa !59
  %212 = getelementptr inbounds nuw %struct.HermiteDataMemRec, ptr %211, i32 0, i32 3
  %213 = load ptr, ptr %212, align 8, !tbaa !65
  %214 = load ptr, ptr %3, align 8, !tbaa !11
  %215 = getelementptr inbounds nuw %struct.CVodeMemRec, ptr %214, i32 0, i32 20
  %216 = load i32, ptr %215, align 4, !tbaa !56
  call void @N_VDestroyVectorArray(ptr noundef %213, i32 noundef %216)
  br label %217

217:                                              ; preds = %204, %187
  %218 = load ptr, ptr %5, align 8, !tbaa !58
  %219 = load i64, ptr %7, align 8, !tbaa !7
  %220 = getelementptr inbounds ptr, ptr %218, i64 %219
  %221 = load ptr, ptr %220, align 8, !tbaa !34
  %222 = getelementptr inbounds nuw %struct.DtpntMemRec, ptr %221, i32 0, i32 1
  %223 = load ptr, ptr %222, align 8, !tbaa !66
  call void @free(ptr noundef %223) #5
  %224 = load ptr, ptr %5, align 8, !tbaa !58
  %225 = load i64, ptr %7, align 8, !tbaa !7
  %226 = getelementptr inbounds ptr, ptr %224, i64 %225
  %227 = load ptr, ptr %226, align 8, !tbaa !34
  %228 = getelementptr inbounds nuw %struct.DtpntMemRec, ptr %227, i32 0, i32 1
  store ptr null, ptr %228, align 8, !tbaa !66
  br label %229

229:                                              ; preds = %217
  %230 = load i64, ptr %7, align 8, !tbaa !7
  %231 = add nsw i64 %230, 1
  store i64 %231, ptr %7, align 8, !tbaa !7
  br label %183, !llvm.loop !69

232:                                              ; preds = %183
  br label %233

233:                                              ; preds = %232, %164
  %234 = load i32, ptr %9, align 4, !tbaa !9
  store i32 %234, ptr %2, align 4
  store i32 1, ptr %10, align 4
  br label %235

235:                                              ; preds = %233, %44, %24
  call void @llvm.lifetime.end.p0(i64 4, ptr %9) #5
  call void @llvm.lifetime.end.p0(i64 8, ptr %8) #5
  call void @llvm.lifetime.end.p0(i64 8, ptr %7) #5
  call void @llvm.lifetime.end.p0(i64 8, ptr %6) #5
  call void @llvm.lifetime.end.p0(i64 8, ptr %5) #5
  call void @llvm.lifetime.end.p0(i64 8, ptr %4) #5
  %236 = load i32, ptr %2, align 4
  ret i32 %236
}