; Function Attrs: nounwind uwtable
define internal range(i32 0, 2) i32 @CVAhermiteMalloc(ptr noundef readonly captures(none) %0) #0 {
  %2 = getelementptr inbounds nuw i8, ptr %0, i64 2192
  %3 = load ptr, ptr %2, align 8, !tbaa !3
  %4 = getelementptr inbounds nuw i8, ptr %0, i64 448
  %5 = load ptr, ptr %4, align 8, !tbaa !48
  %6 = tail call ptr @N_VClone(ptr noundef %5) #8
  %7 = getelementptr inbounds nuw i8, ptr %3, i64 480
  store ptr %6, ptr %7, align 8, !tbaa !49
  %8 = icmp eq ptr %6, null
  br i1 %8, label %.loopexit, label %9

9:                                                ; preds = %1
  %10 = getelementptr inbounds nuw i8, ptr %3, i64 160
  %11 = load i32, ptr %10, align 8, !tbaa !38
  %.not = icmp eq i32 %11, 0
  br i1 %.not, label %21, label %12

12:                                               ; preds = %9
  %13 = getelementptr inbounds nuw i8, ptr %0, i64 140
  %14 = load i32, ptr %13, align 4, !tbaa !50
  %15 = load ptr, ptr %4, align 8, !tbaa !48
  %16 = tail call ptr @N_VCloneVectorArray(i32 noundef %14, ptr noundef %15) #8
  %17 = getelementptr inbounds nuw i8, ptr %3, i64 488
  store ptr %16, ptr %17, align 8, !tbaa !51
  %18 = icmp eq ptr %16, null
  br i1 %18, label %19, label %21

19:                                               ; preds = %12
  %20 = load ptr, ptr %7, align 8, !tbaa !49
  tail call void @N_VDestroy(ptr noundef %20) #8
  br label %.loopexit

21:                                               ; preds = %12, %9
  %22 = getelementptr inbounds nuw i8, ptr %3, i64 96
  %23 = load ptr, ptr %22, align 8, !tbaa !27
  %24 = getelementptr inbounds nuw i8, ptr %3, i64 88
  %25 = load i64, ptr %24, align 8, !tbaa !26
  %.not75.not105 = icmp slt i64 %25, 0
  br i1 %.not75.not105, label %.loopexit, label %.lr.ph

.lr.ph:                                           ; preds = %21
  %26 = getelementptr inbounds nuw i8, ptr %0, i64 140
  br label %27

27:                                               ; preds = %.lr.ph, %66
  %.072106 = phi i64 [ 0, %.lr.ph ], [ %70, %66 ]
  %28 = tail call noalias dereferenceable_or_null(32) ptr @malloc(i64 noundef 32) #9
  %29 = icmp eq ptr %28, null
  br i1 %29, label %.loopexit85, label %30

30:                                               ; preds = %27
  %31 = load ptr, ptr %4, align 8, !tbaa !48
  %32 = tail call ptr @N_VClone(ptr noundef %31) #8
  store ptr %32, ptr %28, align 8, !tbaa !52
  %33 = icmp eq ptr %32, null
  br i1 %33, label %.loopexit85.sink.split, label %34

34:                                               ; preds = %30
  %35 = load ptr, ptr %4, align 8, !tbaa !48
  %36 = tail call ptr @N_VClone(ptr noundef %35) #8
  %37 = getelementptr inbounds nuw i8, ptr %28, i64 8
  store ptr %36, ptr %37, align 8, !tbaa !54
  %38 = icmp eq ptr %36, null
  br i1 %38, label %39, label %41

39:                                               ; preds = %34
  %40 = load ptr, ptr %28, align 8, !tbaa !52
  tail call void @N_VDestroy(ptr noundef %40) #8
  br label %.loopexit85.sink.split

41:                                               ; preds = %34
  %42 = load i32, ptr %10, align 8, !tbaa !38
  %.not76 = icmp eq i32 %42, 0
  br i1 %.not76, label %66, label %43

43:                                               ; preds = %41
  %44 = load i32, ptr %26, align 4, !tbaa !50
  %45 = load ptr, ptr %4, align 8, !tbaa !48
  %46 = tail call ptr @N_VCloneVectorArray(i32 noundef %44, ptr noundef %45) #8
  %47 = getelementptr inbounds nuw i8, ptr %28, i64 16
  store ptr %46, ptr %47, align 8, !tbaa !55
  %48 = icmp eq ptr %46, null
  br i1 %48, label %49, label %53

49:                                               ; preds = %43
  %50 = getelementptr inbounds nuw i8, ptr %28, i64 8
  %51 = load ptr, ptr %28, align 8, !tbaa !52
  tail call void @N_VDestroy(ptr noundef %51) #8
  %52 = load ptr, ptr %50, align 8, !tbaa !54
  tail call void @N_VDestroy(ptr noundef %52) #8
  br label %.loopexit85.sink.split

53:                                               ; preds = %43
  %54 = load i32, ptr %26, align 4, !tbaa !50
  %55 = load ptr, ptr %4, align 8, !tbaa !48
  %56 = tail call ptr @N_VCloneVectorArray(i32 noundef %54, ptr noundef %55) #8
  %57 = getelementptr inbounds nuw i8, ptr %28, i64 24
  store ptr %56, ptr %57, align 8, !tbaa !56
  %58 = icmp eq ptr %56, null
  br i1 %58, label %59, label %66

59:                                               ; preds = %53
  %60 = getelementptr inbounds nuw i8, ptr %28, i64 8
  %61 = getelementptr inbounds nuw i8, ptr %28, i64 16
  %62 = load ptr, ptr %28, align 8, !tbaa !52
  tail call void @N_VDestroy(ptr noundef %62) #8
  %63 = load ptr, ptr %60, align 8, !tbaa !54
  tail call void @N_VDestroy(ptr noundef %63) #8
  %64 = load ptr, ptr %61, align 8, !tbaa !55
  %65 = load i32, ptr %26, align 4, !tbaa !50
  tail call void @N_VDestroyVectorArray(ptr noundef %64, i32 noundef %65) #8
  br label %.loopexit85.sink.split

66:                                               ; preds = %53, %41
  %67 = getelementptr inbounds nuw ptr, ptr %23, i64 %.072106
  %68 = load ptr, ptr %67, align 8, !tbaa !28
  %69 = getelementptr inbounds nuw i8, ptr %68, i64 8
  store ptr %28, ptr %69, align 8, !tbaa !57
  %70 = add nuw nsw i64 %.072106, 1
  %71 = load i64, ptr %24, align 8, !tbaa !26
  %.not75.not.not = icmp slt i64 %.072106, %71
  br i1 %.not75.not.not, label %27, label %.loopexit, !llvm.loop !59

.loopexit85.sink.split:                           ; preds = %30, %39, %49, %59
  tail call void @free(ptr noundef nonnull %28) #8
  br label %.loopexit85

.loopexit85:                                      ; preds = %27, %.loopexit85.sink.split
  %72 = load ptr, ptr %7, align 8, !tbaa !49
  tail call void @N_VDestroy(ptr noundef %72) #8
  %73 = load i32, ptr %10, align 8, !tbaa !38
  %.not78 = icmp eq i32 %73, 0
  br i1 %.not78, label %78, label %74

74:                                               ; preds = %.loopexit85
  %75 = getelementptr inbounds nuw i8, ptr %3, i64 488
  %76 = load ptr, ptr %75, align 8, !tbaa !51
  %77 = load i32, ptr %26, align 4, !tbaa !50
  tail call void @N_VDestroyVectorArray(ptr noundef %76, i32 noundef %77) #8
  br label %78

78:                                               ; preds = %74, %.loopexit85
  %.not109 = icmp eq i64 %.072106, 0
  br i1 %.not109, label %.loopexit, label %.lr.ph108

.lr.ph108:                                        ; preds = %78, %94
  %.1107 = phi i64 [ %100, %94 ], [ 0, %78 ]
  %79 = getelementptr inbounds nuw ptr, ptr %23, i64 %.1107
  %80 = load ptr, ptr %79, align 8, !tbaa !28
  %81 = getelementptr inbounds nuw i8, ptr %80, i64 8
  %82 = load ptr, ptr %81, align 8, !tbaa !57
  %83 = load ptr, ptr %82, align 8, !tbaa !52
  tail call void @N_VDestroy(ptr noundef %83) #8
  %84 = getelementptr inbounds nuw i8, ptr %82, i64 8
  %85 = load ptr, ptr %84, align 8, !tbaa !54
  tail call void @N_VDestroy(ptr noundef %85) #8
  %86 = load i32, ptr %10, align 8, !tbaa !38
  %.not79 = icmp eq i32 %86, 0
  br i1 %.not79, label %94, label %87

87:                                               ; preds = %.lr.ph108
  %88 = getelementptr inbounds nuw i8, ptr %82, i64 16
  %89 = load ptr, ptr %88, align 8, !tbaa !55
  %90 = load i32, ptr %26, align 4, !tbaa !50
  tail call void @N_VDestroyVectorArray(ptr noundef %89, i32 noundef %90) #8
  %91 = getelementptr inbounds nuw i8, ptr %82, i64 24
  %92 = load ptr, ptr %91, align 8, !tbaa !56
  %93 = load i32, ptr %26, align 4, !tbaa !50
  tail call void @N_VDestroyVectorArray(ptr noundef %92, i32 noundef %93) #8
  br label %94

94:                                               ; preds = %87, %.lr.ph108
  %95 = load ptr, ptr %79, align 8, !tbaa !28
  %96 = getelementptr inbounds nuw i8, ptr %95, i64 8
  %97 = load ptr, ptr %96, align 8, !tbaa !57
  tail call void @free(ptr noundef %97) #8
  %98 = load ptr, ptr %79, align 8, !tbaa !28
  %99 = getelementptr inbounds nuw i8, ptr %98, i64 8
  store ptr null, ptr %99, align 8, !tbaa !57
  %100 = add nuw nsw i64 %.1107, 1
  %exitcond.not = icmp eq i64 %100, %.072106
  br i1 %exitcond.not, label %.loopexit, label %.lr.ph108, !llvm.loop !60

.loopexit:                                        ; preds = %66, %94, %21, %78, %1, %19
  %.073 = phi i32 [ 0, %19 ], [ 0, %1 ], [ 0, %78 ], [ 1, %21 ], [ 0, %94 ], [ 1, %66 ]
  ret i32 %.073
}